target datalayout = "e-m:e-p270:32:32-p271:32:32-p272:64:64-i64:64-i128:128-f80:128-n8:16:32:64-S128"
target triple = "x86_64-pc-linux-gnu"

@proto_register_reload_framing.ett = internal global [3 x ptr] [ptr @ett_reload_framing, ptr @ett_reload_framing_message, ptr @ett_reload_framing_received], align 16
@.str.30 = private unnamed_addr constant [40 x i8] c"REsource LOcation And Discovery Framing\00", align 1
@.str.31 = private unnamed_addr constant [15 x i8] c"RELOAD FRAMING\00", align 1
@.str.32 = private unnamed_addr constant [15 x i8] c"reload-framing\00", align 1
@proto_reload_framing = internal global i32 0, align 4
@reload_framing_udp_handle = internal global ptr null, align 8
@.str.33 = private unnamed_addr constant [19 x i8] c"reload-framing.tcp\00", align 1
@reload_framing_tcp_handle = internal global ptr null, align 8

; Function Attrs: null_pointer_is_valid sspstrong uwtable
define hidden void @proto_register_reload_framing() #0 {
  %1 = alloca ptr, align 8
  call void @llvm.lifetime.start.p0(i64 8, ptr %1) #10
  %2 = call i32 @proto_register_protocol(ptr noundef @.str.30, ptr noundef @.str.31, ptr noundef @.str.32)
  store i32 %2, ptr @proto_reload_framing, align 4
  %3 = load i32, ptr @proto_reload_framing, align 4
  call void @proto_register_field_array(i32 noundef %3, ptr noundef @proto_register_reload_framing.hf, i32 noundef 12)
  call void @proto_register_subtree_array(ptr noundef @proto_register_reload_framing.ett, i32 noundef 3)
  %4 = load i32, ptr @proto_reload_framing, align 4
  %5 = call ptr @expert_register_protocol(i32 noundef %4)
  store ptr %5, ptr %1, align 8
  %6 = load ptr, ptr %1, align 8
  call void @expert_register_field_array(ptr noundef %6, ptr noundef @proto_register_reload_framing.ei, i32 noundef 1)
  %7 = load i32, ptr @proto_reload_framing, align 4
  %8 = call ptr @register_dissector(ptr noundef @.str.32, ptr noundef @dissect_reload_framing, i32 noundef %7)
  store ptr %8, ptr @reload_framing_udp_handle, align 8
  %9 = load i32, ptr @proto_reload_framing, align 4
  %10 = call ptr @register_dissector(ptr noundef @.str.33, ptr noundef @dissect_reload_framing_tcp, i32 noundef %9)
  store ptr %10, ptr @reload_framing_tcp_handle, align 8
  call void @llvm.lifetime.end.p0(i64 8, ptr %1) #10
  ret void
}