; Function Attrs: null_pointer_is_valid sspstrong uwtable
define hidden void @proto_register_reload_framing() local_unnamed_addr #0 {
  %1 = tail call i32 @proto_register_protocol(ptr noundef nonnull @.str.30, ptr noundef nonnull @.str.31, ptr noundef nonnull @.str.32)
  store i32 %1, ptr @proto_reload_framing, align 4
  tail call void @proto_register_field_array(i32 noundef %1, ptr noundef nonnull @proto_register_reload_framing.hf, i32 noundef 12)
  tail call void @proto_register_subtree_array(ptr noundef nonnull @proto_register_reload_framing.ett, i32 noundef 3)
  %2 = load i32, ptr @proto_reload_framing, align 4
  %3 = tail call ptr @expert_register_protocol(i32 noundef %2)
  tail call void @expert_register_field_array(ptr noundef %3, ptr noundef nonnull @proto_register_reload_framing.ei, i32 noundef 1)
  %4 = load i32, ptr @proto_reload_framing, align 4
  %5 = tail call ptr @register_dissector(ptr noundef nonnull @.str.32, ptr noundef nonnull @dissect_reload_framing, i32 noundef %4)
  store ptr %5, ptr @reload_framing_udp_handle, align 8
  %6 = load i32, ptr @proto_reload_framing, align 4
  %7 = tail call ptr @register_dissector(ptr noundef nonnull @.str.33, ptr noundef nonnull @dissect_reload_framing_tcp, i32 noundef %6)
  store ptr %7, ptr @reload_framing_tcp_handle, align 8
  ret void
}